target datalayout = "e-m:e-p270:32:32-p271:32:32-p272:64:64-i64:64-i128:128-f80:128-n8:16:32:64-S128"
target triple = "x86_64-pc-linux-gnu"

%"class.google::protobuf::io::FileInputStream::CopyingFileInputStream" = type <{ %"class.google::protobuf::io::CopyingInputStream", i32, i8, i8, [2 x i8], i32, i8, [3 x i8] }>
%"class.google::protobuf::io::CopyingInputStream" = type { ptr }

@_ZTVN6google8protobuf2io18CopyingInputStreamE = external unnamed_addr constant { [6 x ptr] }, align 8

; Function Attrs: mustprogress nounwind uwtable
define linkonce_odr hidden void @_ZN6google8protobuf2io18CopyingInputStreamD2Ev(ptr noundef nonnull align 8 dereferenceable(8) %0) unnamed_addr #5 comdat align 2 {
  %2 = alloca ptr, align 8
  store ptr %0, ptr %2, align 8, !tbaa !30
  ret void
}

; Function Attrs: inlinehint mustprogress nounwind uwtable
define linkonce_odr hidden void @_ZN6google8protobuf2io18CopyingInputStreamC2Ev(ptr noundef nonnull align 8 dereferenceable(8) %0) unnamed_addr #6 comdat align 2 {
  %2 = alloca ptr, align 8
  store ptr %0, ptr %2, align 8, !tbaa !30
  %3 = load ptr, ptr %2, align 8
  store ptr getelementptr inbounds inrange(-16, 32) ({ [6 x ptr] }, ptr @_ZTVN6google8protobuf2io18CopyingInputStreamE, i32 0, i32 0, i32 2), ptr %3, align 8, !tbaa !10
  ret void
}

; Function Attrs: mustprogress uwtable
define hidden void @_ZN6google8protobuf2io15FileInputStream22CopyingFileInputStreamC2Ei(ptr noundef nonnull align 8 dereferenceable(21) %0, i32 noundef %1) unnamed_addr #4 align 2 personality ptr @__gxx_personality_v0 {
  %3 = alloca ptr, align 8
  %4 = alloca i32, align 4
  %5 = alloca i32, align 4
  %6 = alloca ptr, align 8
  %7 = alloca i32, align 4
  store ptr %0, ptr %3, align 8, !tbaa !14
  store i32 %1, ptr %4, align 4, !tbaa !8
  %8 = load ptr, ptr %3, align 8
  call void @_ZN6google8protobuf2io18CopyingInputStreamC2Ev(ptr noundef nonnull align 8 dereferenceable(8) %8) #3
  store ptr getelementptr inbounds inrange(-16, 32) ({ [6 x ptr] }, ptr @_ZTVN6google8protobuf2io15FileInputStream22CopyingFileInputStreamE, i32 0, i32 0, i32 2), ptr %8, align 8, !tbaa !10
  %9 = getelementptr inbounds nuw %"class.google::protobuf::io::FileInputStream::CopyingFileInputStream", ptr %8, i32 0, i32 1
  %10 = load i32, ptr %4, align 4, !tbaa !8
  store i32 %10, ptr %9, align 8, !tbaa !22
  %11 = getelementptr inbounds nuw %"class.google::protobuf::io::FileInputStream::CopyingFileInputStream", ptr %8, i32 0, i32 2
  store i8 0, ptr %11, align 4, !tbaa !28
  %12 = getelementptr inbounds nuw %"class.google::protobuf::io::FileInputStream::CopyingFileInputStream", ptr %8, i32 0, i32 3
  store i8 0, ptr %12, align 1, !tbaa !16
  %13 = getelementptr inbounds nuw %"class.google::protobuf::io::FileInputStream::CopyingFileInputStream", ptr %8, i32 0, i32 5
  store i32 0, ptr %13, align 8, !tbaa !23
  %14 = getelementptr inbounds nuw %"class.google::protobuf::io::FileInputStream::CopyingFileInputStream", ptr %8, i32 0, i32 6
  store i8 0, ptr %14, align 4, !tbaa !29
  call void @llvm.lifetime.start.p0(i64 4, ptr %5) #3
  %15 = getelementptr inbounds nuw %"class.google::protobuf::io::FileInputStream::CopyingFileInputStream", ptr %8, i32 0, i32 1
  %16 = load i32, ptr %15, align 8, !tbaa !22
  %17 = invoke i32 (i32, i32, ...) @fcntl(i32 noundef %16, i32 noundef 3)
          to label %18 unwind label %26

18:                                               ; preds = %2
  store i32 %17, ptr %5, align 4, !tbaa !8
  %19 = load i32, ptr %5, align 4, !tbaa !8
  %20 = and i32 %19, -2049
  store i32 %20, ptr %5, align 4, !tbaa !8
  %21 = getelementptr inbounds nuw %"class.google::protobuf::io::FileInputStream::CopyingFileInputStream", ptr %8, i32 0, i32 1
  %22 = load i32, ptr %21, align 8, !tbaa !22
  %23 = load i32, ptr %5, align 4, !tbaa !8
  %24 = invoke i32 (i32, i32, ...) @fcntl(i32 noundef %22, i32 noundef 4, i32 noundef %23)
          to label %25 unwind label %26

25:                                               ; preds = %18
  call void @llvm.lifetime.end.p0(i64 4, ptr %5) #3
  ret void

26:                                               ; preds = %18, %2
  %27 = landingpad { ptr, i32 }
          cleanup
  %28 = extractvalue { ptr, i32 } %27, 0
  store ptr %28, ptr %6, align 8
  %29 = extractvalue { ptr, i32 } %27, 1
  store i32 %29, ptr %7, align 4
  call void @llvm.lifetime.end.p0(i64 4, ptr %5) #3
  call void @_ZN6google8protobuf2io18CopyingInputStreamD2Ev(ptr noundef nonnull align 8 dereferenceable(8) %8) #3
  br label %30

30:                                               ; preds = %26
  %31 = load ptr, ptr %6, align 8
  %32 = load i32, ptr %7, align 4
  %33 = insertvalue { ptr, i32 } poison, ptr %31, 0
  %34 = insertvalue { ptr, i32 } %33, i32 %32, 1
  resume { ptr, i32 } %34
}