; Function Attrs: mustprogress uwtable
define hidden void @_ZN6google8protobuf2io15FileInputStream22CopyingFileInputStreamC2Ei(ptr noundef nonnull align 8 captures(none) dereferenceable(21) initializes((0, 14), (16, 21)) %0, i32 noundef %1) unnamed_addr #3 align 2 personality ptr @__gxx_personality_v0 {
  store ptr getelementptr inbounds nuw inrange(-16, 32) (i8, ptr @_ZTVN6google8protobuf2io15FileInputStream22CopyingFileInputStreamE, i64 16), ptr %0, align 8, !tbaa !3
  %3 = getelementptr inbounds nuw i8, ptr %0, i64 8
  store i32 %1, ptr %3, align 8, !tbaa !6
  %4 = getelementptr inbounds nuw i8, ptr %0, i64 12
  store i8 0, ptr %4, align 4, !tbaa !12
  %5 = getelementptr inbounds nuw i8, ptr %0, i64 13
  store i8 0, ptr %5, align 1, !tbaa !13
  %6 = getelementptr inbounds nuw i8, ptr %0, i64 16
  store i32 0, ptr %6, align 8, !tbaa !14
  %7 = getelementptr inbounds nuw i8, ptr %0, i64 20
  store i8 0, ptr %7, align 4, !tbaa !15
  %8 = tail call i32 (i32, i32, ...) @fcntl(i32 noundef %1, i32 noundef 3)
  %9 = and i32 %8, -2049
  %10 = load i32, ptr %3, align 8, !tbaa !6
  %11 = tail call i32 (i32, i32, ...) @fcntl(i32 noundef %10, i32 noundef 4, i32 noundef %9)
  ret void
}